target datalayout = "e-m:e-p270:32:32-p271:32:32-p272:64:64-i64:64-i128:128-f80:128-n8:16:32:64-S128"
target triple = "x86_64-pc-linux-gnu"

%"class.clang::NoSanitizeList" = type { %"class.std::unique_ptr", ptr }
%"class.std::unique_ptr" = type { %"struct.std::__uniq_ptr_data" }
%"struct.std::__uniq_ptr_data" = type { %"class.std::__uniq_ptr_impl" }
%"class.std::__uniq_ptr_impl" = type { %"class.std::tuple" }
%"class.std::tuple" = type { %"struct.std::_Tuple_impl" }
%"struct.std::_Tuple_impl" = type { %"struct.std::_Head_base.1" }
%"struct.std::_Head_base.1" = type { ptr }
%"class.llvm::StringRef" = type { ptr, i64 }
%"class.clang::SanitizerMask" = type { [2 x i64] }
%"class.clang::SourceLocation" = type { i32 }

@.str.3 = private unnamed_addr constant [4 x i8] c"src\00", align 1

; Function Attrs: mustprogress nounwind uwtable
define linkonce_odr hidden noundef nonnull align 8 dereferenceable(8) ptr @_ZNSt10_Head_baseILm0EPN5clang24SanitizerSpecialCaseListELb0EE7_M_headERKS3_(ptr noundef nonnull align 8 dereferenceable(8) %0) #0 comdat align 2 {
  %2 = alloca ptr, align 8
  store ptr %0, ptr %2, align 8
  %3 = load ptr, ptr %2, align 8
  %4 = getelementptr inbounds nuw %"struct.std::_Head_base.1", ptr %3, i32 0, i32 0
  ret ptr %4
}

; Function Attrs: mustprogress nounwind uwtable
define linkonce_odr hidden noundef nonnull align 8 dereferenceable(8) ptr @_ZNSt11_Tuple_implILm0EJPN5clang24SanitizerSpecialCaseListESt14default_deleteIS1_EEE7_M_headERKS5_(ptr noundef nonnull align 8 dereferenceable(8) %0) #0 comdat align 2 {
  %2 = alloca ptr, align 8
  store ptr %0, ptr %2, align 8
  %3 = load ptr, ptr %2, align 8
  %4 = call noundef nonnull align 8 dereferenceable(8) ptr @_ZNSt10_Head_baseILm0EPN5clang24SanitizerSpecialCaseListELb0EE7_M_headERKS3_(ptr noundef nonnull align 8 dereferenceable(8) %3) #6
  ret ptr %4
}

; Function Attrs: mustprogress nounwind uwtable
define linkonce_odr noundef nonnull align 8 dereferenceable(8) ptr @_ZSt12__get_helperILm0EPN5clang24SanitizerSpecialCaseListEJSt14default_deleteIS1_EEERKT0_RKSt11_Tuple_implIXT_EJS5_DpT1_EE(ptr noundef nonnull align 8 dereferenceable(8) %0) #0 comdat {
  %2 = alloca ptr, align 8
  store ptr %0, ptr %2, align 8
  %3 = load ptr, ptr %2, align 8
  %4 = call noundef nonnull align 8 dereferenceable(8) ptr @_ZNSt11_Tuple_implILm0EJPN5clang24SanitizerSpecialCaseListESt14default_deleteIS1_EEE7_M_headERKS5_(ptr noundef nonnull align 8 dereferenceable(8) %3) #6
  ret ptr %4
}

; Function Attrs: mustprogress nounwind uwtable
define linkonce_odr noundef nonnull align 8 dereferenceable(8) ptr @_ZSt3getILm0EJPN5clang24SanitizerSpecialCaseListESt14default_deleteIS1_EEERKNSt13tuple_elementIXT_ESt5tupleIJDpT0_EEE4typeERKS9_(ptr noundef nonnull align 8 dereferenceable(8) %0) #0 comdat {
  %2 = alloca ptr, align 8
  store ptr %0, ptr %2, align 8
  %3 = load ptr, ptr %2, align 8
  %4 = call noundef nonnull align 8 dereferenceable(8) ptr @_ZSt12__get_helperILm0EPN5clang24SanitizerSpecialCaseListEJSt14default_deleteIS1_EEERKT0_RKSt11_Tuple_implIXT_EJS5_DpT1_EE(ptr noundef nonnull align 8 dereferenceable(8) %3) #6
  ret ptr %4
}

; Function Attrs: mustprogress nounwind uwtable
define linkonce_odr hidden noundef ptr @_ZNKSt15__uniq_ptr_implIN5clang24SanitizerSpecialCaseListESt14default_deleteIS1_EE6_M_ptrEv(ptr noundef nonnull align 8 dereferenceable(8) %0) #0 comdat align 2 {
  %2 = alloca ptr, align 8
  store ptr %0, ptr %2, align 8
  %3 = load ptr, ptr %2, align 8
  %4 = getelementptr inbounds nuw %"class.std::__uniq_ptr_impl", ptr %3, i32 0, i32 0
  %5 = call noundef nonnull align 8 dereferenceable(8) ptr @_ZSt3getILm0EJPN5clang24SanitizerSpecialCaseListESt14default_deleteIS1_EEERKNSt13tuple_elementIXT_ESt5tupleIJDpT0_EEE4typeERKS9_(ptr noundef nonnull align 8 dereferenceable(8) %4) #6
  %6 = load ptr, ptr %5, align 8
  ret ptr %6
}

; Function Attrs: mustprogress nounwind uwtable
define linkonce_odr hidden noundef i64 @_ZNSt11char_traitsIcE6lengthEPKc(ptr noundef %0) #0 comdat align 2 {
  %2 = alloca ptr, align 8
  store ptr %0, ptr %2, align 8
  %3 = load ptr, ptr %2, align 8
  %4 = call i64 @strlen(ptr noundef %3) #6
  ret i64 %4
}

; Function Attrs: mustprogress nounwind uwtable
define linkonce_odr hidden noundef ptr @_ZNKSt10unique_ptrIN5clang24SanitizerSpecialCaseListESt14default_deleteIS1_EE3getEv(ptr noundef nonnull align 8 dereferenceable(8) %0) #0 comdat align 2 {
  %2 = alloca ptr, align 8
  store ptr %0, ptr %2, align 8
  %3 = load ptr, ptr %2, align 8
  %4 = getelementptr inbounds nuw %"class.std::unique_ptr", ptr %3, i32 0, i32 0
  %5 = call noundef ptr @_ZNKSt15__uniq_ptr_implIN5clang24SanitizerSpecialCaseListESt14default_deleteIS1_EE6_M_ptrEv(ptr noundef nonnull align 8 dereferenceable(8) %4) #6
  ret ptr %5
}

; Function Attrs: mustprogress nounwind uwtable
define linkonce_odr hidden void @_ZN4llvm9StringRefC2EPKc(ptr noundef nonnull align 8 dereferenceable(16) %0, ptr noundef %1) unnamed_addr #0 comdat align 2 {
  %3 = alloca ptr, align 8
  %4 = alloca ptr, align 8
  store ptr %0, ptr %3, align 8
  store ptr %1, ptr %4, align 8
  %5 = load ptr, ptr %3, align 8
  %6 = getelementptr inbounds nuw %"class.llvm::StringRef", ptr %5, i32 0, i32 0
  %7 = load ptr, ptr %4, align 8
  store ptr %7, ptr %6, align 8
  %8 = getelementptr inbounds nuw %"class.llvm::StringRef", ptr %5, i32 0, i32 1
  %9 = load ptr, ptr %4, align 8
  %10 = icmp ne ptr %9, null
  br i1 %10, label %11, label %14

11:                                               ; preds = %2
  %12 = load ptr, ptr %4, align 8
  %13 = call noundef i64 @_ZNSt11char_traitsIcE6lengthEPKc(ptr noundef %12)
  br label %15

14:                                               ; preds = %2
  br label %15

15:                                               ; preds = %14, %11
  %16 = phi i64 [ %13, %11 ], [ 0, %14 ]
  store i64 %16, ptr %8, align 8
  ret void
}

; Function Attrs: mustprogress nounwind uwtable
define linkonce_odr hidden noundef ptr @_ZNKSt10unique_ptrIN5clang24SanitizerSpecialCaseListESt14default_deleteIS1_EEptEv(ptr noundef nonnull align 8 dereferenceable(8) %0) #0 comdat align 2 {
  %2 = alloca ptr, align 8
  store ptr %0, ptr %2, align 8
  %3 = load ptr, ptr %2, align 8
  %4 = call noundef ptr @_ZNKSt10unique_ptrIN5clang24SanitizerSpecialCaseListESt14default_deleteIS1_EE3getEv(ptr noundef nonnull align 8 dereferenceable(8) %3) #6
  ret ptr %4
}

; Function Attrs: mustprogress nounwind uwtable
define linkonce_odr hidden noundef zeroext i1 @_ZNK5clang14SourceLocation8isFileIDEv(ptr noundef nonnull align 4 dereferenceable(4) %0) #0 comdat align 2 {
  %2 = alloca ptr, align 8
  store ptr %0, ptr %2, align 8
  %3 = load ptr, ptr %2, align 8
  %4 = getelementptr inbounds nuw %"class.clang::SourceLocation", ptr %3, i32 0, i32 0
  %5 = load i32, ptr %4, align 4
  %6 = and i32 %5, -2147483648
  %7 = icmp eq i32 %6, 0
  ret i1 %7
}

; Function Attrs: mustprogress nounwind uwtable
define dso_local noundef zeroext i1 @_ZNK5clang14NoSanitizeList12containsFileENS_13SanitizerMaskEN4llvm9StringRefES3_(ptr noundef nonnull align 8 dereferenceable(16) %0, i64 %1, i64 %2, ptr %3, i64 %4, ptr noundef byval(%"class.llvm::StringRef") align 8 %5) #0 align 2 {
  %7 = alloca %"class.clang::SanitizerMask", align 8
  %8 = alloca %"class.llvm::StringRef", align 8
  %9 = alloca ptr, align 8
  %10 = alloca %"class.clang::SanitizerMask", align 8
  %11 = alloca %"class.llvm::StringRef", align 8
  %12 = alloca %"class.llvm::StringRef", align 8
  %13 = alloca %"class.llvm::StringRef", align 8
  %14 = getelementptr inbounds nuw { i64, i64 }, ptr %7, i32 0, i32 0
  store i64 %1, ptr %14, align 8
  %15 = getelementptr inbounds nuw { i64, i64 }, ptr %7, i32 0, i32 1
  store i64 %2, ptr %15, align 8
  %16 = getelementptr inbounds nuw { ptr, i64 }, ptr %8, i32 0, i32 0
  store ptr %3, ptr %16, align 8
  %17 = getelementptr inbounds nuw { ptr, i64 }, ptr %8, i32 0, i32 1
  store i64 %4, ptr %17, align 8
  store ptr %0, ptr %9, align 8
  %18 = load ptr, ptr %9, align 8
  %19 = getelementptr inbounds nuw %"class.clang::NoSanitizeList", ptr %18, i32 0, i32 0
  %20 = call noundef ptr @_ZNKSt10unique_ptrIN5clang24SanitizerSpecialCaseListESt14default_deleteIS1_EEptEv(ptr noundef nonnull align 8 dereferenceable(8) %19) #6
  call void @llvm.memcpy.p0.p0.i64(ptr align 8 %10, ptr align 8 %7, i64 16, i1 false)
  call void @_ZN4llvm9StringRefC2EPKc(ptr noundef nonnull align 8 dereferenceable(16) %11, ptr noundef @.str.3)
  call void @llvm.memcpy.p0.p0.i64(ptr align 8 %12, ptr align 8 %8, i64 16, i1 false)
  call void @llvm.memcpy.p0.p0.i64(ptr align 8 %13, ptr align 8 %5, i64 16, i1 false)
  %21 = getelementptr inbounds nuw { i64, i64 }, ptr %10, i32 0, i32 0
  %22 = load i64, ptr %21, align 8
  %23 = getelementptr inbounds nuw { i64, i64 }, ptr %10, i32 0, i32 1
  %24 = load i64, ptr %23, align 8
  %25 = getelementptr inbounds nuw { ptr, i64 }, ptr %11, i32 0, i32 0
  %26 = load ptr, ptr %25, align 8
  %27 = getelementptr inbounds nuw { ptr, i64 }, ptr %11, i32 0, i32 1
  %28 = load i64, ptr %27, align 8
  %29 = call noundef zeroext i1 @_ZNK5clang24SanitizerSpecialCaseList9inSectionENS_13SanitizerMaskEN4llvm9StringRefES3_S3_(ptr noundef nonnull align 8 dereferenceable(48) %20, i64 %22, i64 %24, ptr %26, i64 %28, ptr noundef byval(%"class.llvm::StringRef") align 8 %12, ptr noundef byval(%"class.llvm::StringRef") align 8 %13)
  ret i1 %29
}

; Function Attrs: mustprogress nounwind uwtable
define linkonce_odr hidden i32 @_ZNK5clang13SourceManager10getFileLocENS_14SourceLocationE(ptr noundef nonnull align 8 dereferenceable(696) %0, i32 %1) #0 comdat align 2 {
  %3 = alloca %"class.clang::SourceLocation", align 4
  %4 = alloca %"class.clang::SourceLocation", align 4
  %5 = alloca ptr, align 8
  %6 = alloca %"class.clang::SourceLocation", align 4
  %7 = getelementptr inbounds nuw %"class.clang::SourceLocation", ptr %4, i32 0, i32 0
  store i32 %1, ptr %7, align 4
  store ptr %0, ptr %5, align 8
  %8 = load ptr, ptr %5, align 8
  %9 = call noundef zeroext i1 @_ZNK5clang14SourceLocation8isFileIDEv(ptr noundef nonnull align 4 dereferenceable(4) %4)
  br i1 %9, label %10, label %11

10:                                               ; preds = %2
  call void @llvm.memcpy.p0.p0.i64(ptr align 4 %3, ptr align 4 %4, i64 4, i1 false)
  br label %16

11:                                               ; preds = %2
  call void @llvm.memcpy.p0.p0.i64(ptr align 4 %6, ptr align 4 %4, i64 4, i1 false)
  %12 = getelementptr inbounds nuw %"class.clang::SourceLocation", ptr %6, i32 0, i32 0
  %13 = load i32, ptr %12, align 4
  %14 = call i32 @_ZNK5clang13SourceManager18getFileLocSlowCaseENS_14SourceLocationE(ptr noundef nonnull align 8 dereferenceable(696) %8, i32 %13)
  %15 = getelementptr inbounds nuw %"class.clang::SourceLocation", ptr %3, i32 0, i32 0
  store i32 %14, ptr %15, align 4
  br label %16

16:                                               ; preds = %11, %10
  %17 = getelementptr inbounds nuw %"class.clang::SourceLocation", ptr %3, i32 0, i32 0
  %18 = load i32, ptr %17, align 4
  ret i32 %18
}

; Function Attrs: mustprogress nounwind uwtable
define linkonce_odr hidden noundef zeroext i1 @_ZNK5clang14SourceLocation7isValidEv(ptr noundef nonnull align 4 dereferenceable(4) %0) #0 comdat align 2 {
  %2 = alloca ptr, align 8
  store ptr %0, ptr %2, align 8
  %3 = load ptr, ptr %2, align 8
  %4 = getelementptr inbounds nuw %"class.clang::SourceLocation", ptr %3, i32 0, i32 0
  %5 = load i32, ptr %4, align 4
  %6 = icmp ne i32 %5, 0
  ret i1 %6
}

; Function Attrs: mustprogress nounwind uwtable
define dso_local noundef zeroext i1 @_ZNK5clang14NoSanitizeList16containsLocationENS_13SanitizerMaskENS_14SourceLocationEN4llvm9StringRefE(ptr noundef nonnull align 8 dereferenceable(16) %0, i64 %1, i64 %2, i32 %3, ptr %4, i64 %5) #0 align 2 {
  %7 = alloca %"class.clang::SanitizerMask", align 8
  %8 = alloca %"class.clang::SourceLocation", align 4
  %9 = alloca %"class.llvm::StringRef", align 8
  %10 = alloca ptr, align 8
  %11 = alloca %"class.clang::SanitizerMask", align 8
  %12 = alloca %"class.llvm::StringRef", align 8
  %13 = alloca %"class.clang::SourceLocation", align 4
  %14 = alloca %"class.clang::SourceLocation", align 4
  %15 = alloca %"class.llvm::StringRef", align 8
  %16 = getelementptr inbounds nuw { i64, i64 }, ptr %7, i32 0, i32 0
  store i64 %1, ptr %16, align 8
  %17 = getelementptr inbounds nuw { i64, i64 }, ptr %7, i32 0, i32 1
  store i64 %2, ptr %17, align 8
  %18 = getelementptr inbounds nuw %"class.clang::SourceLocation", ptr %8, i32 0, i32 0
  store i32 %3, ptr %18, align 4
  %19 = getelementptr inbounds nuw { ptr, i64 }, ptr %9, i32 0, i32 0
  store ptr %4, ptr %19, align 8
  %20 = getelementptr inbounds nuw { ptr, i64 }, ptr %9, i32 0, i32 1
  store i64 %5, ptr %20, align 8
  store ptr %0, ptr %10, align 8
  %21 = load ptr, ptr %10, align 8
  %22 = call noundef zeroext i1 @_ZNK5clang14SourceLocation7isValidEv(ptr noundef nonnull align 4 dereferenceable(4) %8)
  br i1 %22, label %23, label %48

23:                                               ; preds = %6
  call void @llvm.memcpy.p0.p0.i64(ptr align 8 %11, ptr align 8 %7, i64 16, i1 false)
  %24 = getelementptr inbounds nuw %"class.clang::NoSanitizeList", ptr %21, i32 0, i32 1
  %25 = load ptr, ptr %24, align 8
  %26 = getelementptr inbounds nuw %"class.clang::NoSanitizeList", ptr %21, i32 0, i32 1
  %27 = load ptr, ptr %26, align 8
  call void @llvm.memcpy.p0.p0.i64(ptr align 4 %14, ptr align 4 %8, i64 4, i1 false)
  %28 = getelementptr inbounds nuw %"class.clang::SourceLocation", ptr %14, i32 0, i32 0
  %29 = load i32, ptr %28, align 4
  %30 = call i32 @_ZNK5clang13SourceManager10getFileLocENS_14SourceLocationE(ptr noundef nonnull align 8 dereferenceable(696) %27, i32 %29)
  %31 = getelementptr inbounds nuw %"class.clang::SourceLocation", ptr %13, i32 0, i32 0
  store i32 %30, ptr %31, align 4
  %32 = getelementptr inbounds nuw %"class.clang::SourceLocation", ptr %13, i32 0, i32 0
  %33 = load i32, ptr %32, align 4
  %34 = call { ptr, i64 } @_ZNK5clang13SourceManager11getFilenameENS_14SourceLocationE(ptr noundef nonnull align 8 dereferenceable(696) %25, i32 %33)
  %35 = getelementptr inbounds nuw { ptr, i64 }, ptr %12, i32 0, i32 0
  %36 = extractvalue { ptr, i64 } %34, 0
  store ptr %36, ptr %35, align 8
  %37 = getelementptr inbounds nuw { ptr, i64 }, ptr %12, i32 0, i32 1
  %38 = extractvalue { ptr, i64 } %34, 1
  store i64 %38, ptr %37, align 8
  call void @llvm.memcpy.p0.p0.i64(ptr align 8 %15, ptr align 8 %9, i64 16, i1 false)
  %39 = getelementptr inbounds nuw { i64, i64 }, ptr %11, i32 0, i32 0
  %40 = load i64, ptr %39, align 8
  %41 = getelementptr inbounds nuw { i64, i64 }, ptr %11, i32 0, i32 1
  %42 = load i64, ptr %41, align 8
  %43 = getelementptr inbounds nuw { ptr, i64 }, ptr %12, i32 0, i32 0
  %44 = load ptr, ptr %43, align 8
  %45 = getelementptr inbounds nuw { ptr, i64 }, ptr %12, i32 0, i32 1
  %46 = load i64, ptr %45, align 8
  %47 = call noundef zeroext i1 @_ZNK5clang14NoSanitizeList12containsFileENS_13SanitizerMaskEN4llvm9StringRefES3_(ptr noundef nonnull align 8 dereferenceable(16) %21, i64 %40, i64 %42, ptr %44, i64 %46, ptr noundef byval(%"class.llvm::StringRef") align 8 %15)
  br label %48

48:                                               ; preds = %23, %6
  %49 = phi i1 [ false, %6 ], [ %47, %23 ]
  ret i1 %49
}