; Function Attrs: mustprogress nounwind uwtable
define dso_local noundef zeroext i1 @_ZNK5clang14NoSanitizeList16containsLocationENS_13SanitizerMaskENS_14SourceLocationEN4llvm9StringRefE(ptr noundef nonnull readonly align 8 captures(none) dereferenceable(16) %0, i64 %1, i64 %2, i32 %3, ptr %4, i64 %5) local_unnamed_addr #0 align 2 {
  %7 = alloca %"class.llvm::StringRef", align 8
  %8 = alloca %"class.llvm::StringRef", align 8
  %.not = icmp eq i32 %3, 0
  br i1 %.not, label %20, label %9

9:                                                ; preds = %6
  %10 = getelementptr inbounds nuw i8, ptr %0, i64 8
  %11 = load ptr, ptr %10, align 8
  %12 = icmp sgt i32 %3, -1
  br i1 %12, label %_ZNK5clang13SourceManager10getFileLocENS_14SourceLocationE.exit, label %13

13:                                               ; preds = %9
  %14 = tail call i32 @_ZNK5clang13SourceManager18getFileLocSlowCaseENS_14SourceLocationE(ptr noundef nonnull align 8 dereferenceable(696) %11, i32 %3) #6
  br label %_ZNK5clang13SourceManager10getFileLocENS_14SourceLocationE.exit

_ZNK5clang13SourceManager10getFileLocENS_14SourceLocationE.exit: ; preds = %9, %13
  %.sroa.01.0.i = phi i32 [ %14, %13 ], [ %3, %9 ]
  %15 = tail call { ptr, i64 } @_ZNK5clang13SourceManager11getFilenameENS_14SourceLocationE(ptr noundef nonnull align 8 dereferenceable(696) %11, i32 %.sroa.01.0.i) #6
  %16 = extractvalue { ptr, i64 } %15, 0
  %17 = extractvalue { ptr, i64 } %15, 1
  call void @llvm.lifetime.start.p0(i64 16, ptr nonnull %8)
  call void @llvm.lifetime.start.p0(i64 16, ptr nonnull %7)
  store ptr %4, ptr %8, align 8
  %.sroa.2.0..sroa_idx = getelementptr inbounds nuw i8, ptr %8, i64 8
  store i64 %5, ptr %.sroa.2.0..sroa_idx, align 8
  %18 = load ptr, ptr %0, align 8
  store ptr %16, ptr %7, align 8
  %.sroa.22.0..sroa_idx.i = getelementptr inbounds nuw i8, ptr %7, i64 8
  store i64 %17, ptr %.sroa.22.0..sroa_idx.i, align 8
  %19 = tail call noundef zeroext i1 @_ZNK5clang24SanitizerSpecialCaseList9inSectionENS_13SanitizerMaskEN4llvm9StringRefES3_S3_(ptr noundef nonnull align 8 dereferenceable(48) %18, i64 %1, i64 %2, ptr nonnull @.str.3, i64 3, ptr noundef nonnull byval(%"class.llvm::StringRef") align 8 %7, ptr noundef nonnull byval(%"class.llvm::StringRef") align 8 %8) #6
  call void @llvm.lifetime.end.p0(i64 16, ptr nonnull %8)
  call void @llvm.lifetime.end.p0(i64 16, ptr nonnull %7)
  br label %20

20:                                               ; preds = %_ZNK5clang13SourceManager10getFileLocENS_14SourceLocationE.exit, %6
  %21 = phi i1 [ false, %6 ], [ %19, %_ZNK5clang13SourceManager10getFileLocENS_14SourceLocationE.exit ]
  ret i1 %21
}